target datalayout = "e-m:e-p270:32:32-p271:32:32-p272:64:64-i64:64-i128:128-f80:128-n8:16:32:64-S128"
target triple = "x86_64-pc-linux-gnu"

%struct.URLContext = type { ptr, ptr, ptr, ptr, i32, i32, i32, i32, %struct.AVIOInterruptCB, i64, ptr, ptr, i32 }
%struct.AVIOInterruptCB = type { ptr, ptr }
%struct.CacheContext = type { ptr, i32, ptr, ptr, i64, i64, i64, i64, i32, ptr, i64, i64, i32 }

@.str.4 = private unnamed_addr constant [30 x i8] c"Assertion %s failed at %s:%d\0A\00", align 1
@.str.6 = private unnamed_addr constant [20 x i8] c"libavformat/cache.c\00", align 1
@.str.12 = private unnamed_addr constant [45 x i8] c"Inner protocol failed to seekback end : %ld\0A\00", align 1
@.str.13 = private unnamed_addr constant [15 x i8] c"c->is_true_eof\00", align 1

; Function Attrs: inlinehint nounwind uwtable
define internal i64 @ffurl_seek(ptr noundef %0, i64 noundef %1, i32 noundef %2) #6 {
  %4 = alloca ptr, align 8
  %5 = alloca i64, align 8
  %6 = alloca i32, align 4
  store ptr %0, ptr %4, align 8, !tbaa !4
  store i64 %1, ptr %5, align 8, !tbaa !36
  store i32 %2, ptr %6, align 4, !tbaa !11
  %7 = load ptr, ptr %4, align 8, !tbaa !4
  %8 = load i64, ptr %5, align 8, !tbaa !36
  %9 = load i32, ptr %6, align 4, !tbaa !11
  %10 = call i64 @ffurl_seek2(ptr noundef %7, i64 noundef %8, i32 noundef %9)
  ret i64 %10
}

; Function Attrs: nounwind uwtable
define internal i64 @cache_seek(ptr noundef %0, i64 noundef %1, i32 noundef %2) #0 {
  %4 = alloca i64, align 8
  %5 = alloca ptr, align 8
  %6 = alloca i64, align 8
  %7 = alloca i32, align 4
  %8 = alloca ptr, align 8
  %9 = alloca i64, align 8
  %10 = alloca i32, align 4
  %11 = alloca [32768 x i8], align 16
  %12 = alloca i32, align 4
  store ptr %0, ptr %5, align 8, !tbaa !4
  store i64 %1, ptr %6, align 8, !tbaa !36
  store i32 %2, ptr %7, align 4, !tbaa !11
  call void @llvm.lifetime.start.p0(i64 8, ptr %8) #8
  %13 = load ptr, ptr %5, align 8, !tbaa !4
  %14 = getelementptr inbounds nuw %struct.URLContext, ptr %13, i32 0, i32 2
  %15 = load ptr, ptr %14, align 8, !tbaa !16
  store ptr %15, ptr %8, align 8, !tbaa !22
  call void @llvm.lifetime.start.p0(i64 8, ptr %9) #8
  %16 = load i32, ptr %7, align 4, !tbaa !11
  %17 = icmp eq i32 %16, 65536
  br i1 %17, label %18, label %67

18:                                               ; preds = %3
  %19 = load ptr, ptr %8, align 8, !tbaa !22
  %20 = getelementptr inbounds nuw %struct.CacheContext, ptr %19, i32 0, i32 9
  %21 = load ptr, ptr %20, align 8, !tbaa !42
  %22 = load i64, ptr %6, align 8, !tbaa !36
  %23 = load i32, ptr %7, align 4, !tbaa !11
  %24 = call i64 @ffurl_seek(ptr noundef %21, i64 noundef %22, i32 noundef %23)
  store i64 %24, ptr %6, align 8, !tbaa !36
  %25 = load i64, ptr %6, align 8, !tbaa !36
  %26 = icmp sle i64 %25, 0
  br i1 %26, label %27, label %44

27:                                               ; preds = %18
  %28 = load ptr, ptr %8, align 8, !tbaa !22
  %29 = getelementptr inbounds nuw %struct.CacheContext, ptr %28, i32 0, i32 9
  %30 = load ptr, ptr %29, align 8, !tbaa !42
  %31 = call i64 @ffurl_seek(ptr noundef %30, i64 noundef -1, i32 noundef 2)
  store i64 %31, ptr %6, align 8, !tbaa !36
  %32 = load ptr, ptr %8, align 8, !tbaa !22
  %33 = getelementptr inbounds nuw %struct.CacheContext, ptr %32, i32 0, i32 9
  %34 = load ptr, ptr %33, align 8, !tbaa !42
  %35 = load ptr, ptr %8, align 8, !tbaa !22
  %36 = getelementptr inbounds nuw %struct.CacheContext, ptr %35, i32 0, i32 6
  %37 = load i64, ptr %36, align 8, !tbaa !41
  %38 = call i64 @ffurl_seek(ptr noundef %34, i64 noundef %37, i32 noundef 0)
  %39 = icmp slt i64 %38, 0
  br i1 %39, label %40, label %43

40:                                               ; preds = %27
  %41 = load ptr, ptr %5, align 8, !tbaa !4
  %42 = load i64, ptr %6, align 8, !tbaa !36
  call void (ptr, i32, ptr, ...) @av_log(ptr noundef %41, i32 noundef 16, ptr noundef @.str.12, i64 noundef %42)
  br label %43

43:                                               ; preds = %40, %27
  br label %44

44:                                               ; preds = %43, %18
  %45 = load i64, ptr %6, align 8, !tbaa !36
  %46 = icmp sgt i64 %45, 0
  br i1 %46, label %47, label %50

47:                                               ; preds = %44
  %48 = load ptr, ptr %8, align 8, !tbaa !22
  %49 = getelementptr inbounds nuw %struct.CacheContext, ptr %48, i32 0, i32 8
  store i32 1, ptr %49, align 8, !tbaa !43
  br label %50

50:                                               ; preds = %47, %44
  %51 = load ptr, ptr %8, align 8, !tbaa !22
  %52 = getelementptr inbounds nuw %struct.CacheContext, ptr %51, i32 0, i32 7
  %53 = load i64, ptr %52, align 8, !tbaa !44
  %54 = load i64, ptr %6, align 8, !tbaa !36
  %55 = icmp sgt i64 %53, %54
  br i1 %55, label %56, label %60

56:                                               ; preds = %50
  %57 = load ptr, ptr %8, align 8, !tbaa !22
  %58 = getelementptr inbounds nuw %struct.CacheContext, ptr %57, i32 0, i32 7
  %59 = load i64, ptr %58, align 8, !tbaa !44
  br label %62

60:                                               ; preds = %50
  %61 = load i64, ptr %6, align 8, !tbaa !36
  br label %62

62:                                               ; preds = %60, %56
  %63 = phi i64 [ %59, %56 ], [ %61, %60 ]
  %64 = load ptr, ptr %8, align 8, !tbaa !22
  %65 = getelementptr inbounds nuw %struct.CacheContext, ptr %64, i32 0, i32 7
  store i64 %63, ptr %65, align 8, !tbaa !44
  %66 = load i64, ptr %6, align 8, !tbaa !36
  store i64 %66, ptr %4, align 8
  store i32 1, ptr %10, align 4
  br label %245

67:                                               ; preds = %3
  %68 = load i32, ptr %7, align 4, !tbaa !11
  %69 = icmp eq i32 %68, 1
  br i1 %69, label %70, label %76

70:                                               ; preds = %67
  store i32 0, ptr %7, align 4, !tbaa !11
  %71 = load ptr, ptr %8, align 8, !tbaa !22
  %72 = getelementptr inbounds nuw %struct.CacheContext, ptr %71, i32 0, i32 4
  %73 = load i64, ptr %72, align 8, !tbaa !33
  %74 = load i64, ptr %6, align 8, !tbaa !36
  %75 = add nsw i64 %74, %73
  store i64 %75, ptr %6, align 8, !tbaa !36
  br label %92

76:                                               ; preds = %67
  %77 = load i32, ptr %7, align 4, !tbaa !11
  %78 = icmp eq i32 %77, 2
  br i1 %78, label %79, label %91

79:                                               ; preds = %76
  %80 = load ptr, ptr %8, align 8, !tbaa !22
  %81 = getelementptr inbounds nuw %struct.CacheContext, ptr %80, i32 0, i32 8
  %82 = load i32, ptr %81, align 8, !tbaa !43
  %83 = icmp ne i32 %82, 0
  br i1 %83, label %84, label %91

84:                                               ; preds = %79
  br label %85

85:                                               ; preds = %218, %84
  store i32 0, ptr %7, align 4, !tbaa !11
  %86 = load ptr, ptr %8, align 8, !tbaa !22
  %87 = getelementptr inbounds nuw %struct.CacheContext, ptr %86, i32 0, i32 7
  %88 = load i64, ptr %87, align 8, !tbaa !44
  %89 = load i64, ptr %6, align 8, !tbaa !36
  %90 = add nsw i64 %89, %88
  store i64 %90, ptr %6, align 8, !tbaa !36
  br label %91

91:                                               ; preds = %85, %79, %76
  br label %92

92:                                               ; preds = %91, %70
  %93 = load i32, ptr %7, align 4, !tbaa !11
  %94 = icmp eq i32 %93, 0
  br i1 %94, label %95, label %109

95:                                               ; preds = %92
  %96 = load i64, ptr %6, align 8, !tbaa !36
  %97 = icmp sge i64 %96, 0
  br i1 %97, label %98, label %109

98:                                               ; preds = %95
  %99 = load i64, ptr %6, align 8, !tbaa !36
  %100 = load ptr, ptr %8, align 8, !tbaa !22
  %101 = getelementptr inbounds nuw %struct.CacheContext, ptr %100, i32 0, i32 7
  %102 = load i64, ptr %101, align 8, !tbaa !44
  %103 = icmp slt i64 %99, %102
  br i1 %103, label %104, label %109

104:                                              ; preds = %98
  %105 = load i64, ptr %6, align 8, !tbaa !36
  %106 = load ptr, ptr %8, align 8, !tbaa !22
  %107 = getelementptr inbounds nuw %struct.CacheContext, ptr %106, i32 0, i32 4
  store i64 %105, ptr %107, align 8, !tbaa !33
  %108 = load i64, ptr %6, align 8, !tbaa !36
  store i64 %108, ptr %4, align 8
  store i32 1, ptr %10, align 4
  br label %245

109:                                              ; preds = %98, %95, %92
  %110 = load ptr, ptr %8, align 8, !tbaa !22
  %111 = getelementptr inbounds nuw %struct.CacheContext, ptr %110, i32 0, i32 9
  %112 = load ptr, ptr %111, align 8, !tbaa !42
  %113 = load i64, ptr %6, align 8, !tbaa !36
  %114 = load i32, ptr %7, align 4, !tbaa !11
  %115 = call i64 @ffurl_seek(ptr noundef %112, i64 noundef %113, i32 noundef %114)
  store i64 %115, ptr %9, align 8, !tbaa !36
  %116 = load i32, ptr %7, align 4, !tbaa !11
  %117 = icmp eq i32 %116, 0
  br i1 %117, label %118, label %124

118:                                              ; preds = %109
  %119 = load i64, ptr %6, align 8, !tbaa !36
  %120 = load ptr, ptr %8, align 8, !tbaa !22
  %121 = getelementptr inbounds nuw %struct.CacheContext, ptr %120, i32 0, i32 4
  %122 = load i64, ptr %121, align 8, !tbaa !33
  %123 = icmp sge i64 %119, %122
  br i1 %123, label %130, label %124

124:                                              ; preds = %118, %109
  %125 = load i32, ptr %7, align 4, !tbaa !11
  %126 = icmp eq i32 %125, 2
  br i1 %126, label %127, label %221

127:                                              ; preds = %124
  %128 = load i64, ptr %6, align 8, !tbaa !36
  %129 = icmp sle i64 %128, 0
  br i1 %129, label %130, label %221

130:                                              ; preds = %127, %118
  %131 = load i64, ptr %9, align 8, !tbaa !36
  %132 = icmp slt i64 %131, 0
  br i1 %132, label %133, label %221

133:                                              ; preds = %130
  %134 = load i32, ptr %7, align 4, !tbaa !11
  %135 = icmp eq i32 %134, 0
  br i1 %135, label %136, label %147

136:                                              ; preds = %133
  %137 = load ptr, ptr %8, align 8, !tbaa !22
  %138 = getelementptr inbounds nuw %struct.CacheContext, ptr %137, i32 0, i32 12
  %139 = load i32, ptr %138, align 8, !tbaa !46
  %140 = sext i32 %139 to i64
  %141 = load i64, ptr %6, align 8, !tbaa !36
  %142 = load ptr, ptr %8, align 8, !tbaa !22
  %143 = getelementptr inbounds nuw %struct.CacheContext, ptr %142, i32 0, i32 4
  %144 = load i64, ptr %143, align 8, !tbaa !33
  %145 = sub nsw i64 %141, %144
  %146 = icmp sge i64 %140, %145
  br i1 %146, label %152, label %147

147:                                              ; preds = %136, %133
  %148 = load ptr, ptr %8, align 8, !tbaa !22
  %149 = getelementptr inbounds nuw %struct.CacheContext, ptr %148, i32 0, i32 12
  %150 = load i32, ptr %149, align 8, !tbaa !46
  %151 = icmp slt i32 %150, 0
  br i1 %151, label %152, label %220

152:                                              ; preds = %147, %136
  call void @llvm.lifetime.start.p0(i64 32768, ptr %11) #8
  br label %153

153:                                              ; preds = %213, %152
  %154 = load ptr, ptr %8, align 8, !tbaa !22
  %155 = getelementptr inbounds nuw %struct.CacheContext, ptr %154, i32 0, i32 4
  %156 = load i64, ptr %155, align 8, !tbaa !33
  %157 = load i64, ptr %6, align 8, !tbaa !36
  %158 = icmp slt i64 %156, %157
  br i1 %158, label %162, label %159

159:                                              ; preds = %153
  %160 = load i32, ptr %7, align 4, !tbaa !11
  %161 = icmp eq i32 %160, 2
  br label %162

162:                                              ; preds = %159, %153
  %163 = phi i1 [ true, %153 ], [ %161, %159 ]
  br i1 %163, label %164, label %214

164:                                              ; preds = %162
  call void @llvm.lifetime.start.p0(i64 4, ptr %12) #8
  store i32 32768, ptr %12, align 4, !tbaa !11
  %165 = load i32, ptr %7, align 4, !tbaa !11
  %166 = icmp eq i32 %165, 0
  br i1 %166, label %167, label %184

167:                                              ; preds = %164
  %168 = load i64, ptr %6, align 8, !tbaa !36
  %169 = load ptr, ptr %8, align 8, !tbaa !22
  %170 = getelementptr inbounds nuw %struct.CacheContext, ptr %169, i32 0, i32 4
  %171 = load i64, ptr %170, align 8, !tbaa !33
  %172 = sub nsw i64 %168, %171
  %173 = icmp ugt i64 32768, %172
  br i1 %173, label %174, label %180

174:                                              ; preds = %167
  %175 = load i64, ptr %6, align 8, !tbaa !36
  %176 = load ptr, ptr %8, align 8, !tbaa !22
  %177 = getelementptr inbounds nuw %struct.CacheContext, ptr %176, i32 0, i32 4
  %178 = load i64, ptr %177, align 8, !tbaa !33
  %179 = sub nsw i64 %175, %178
  br label %181

180:                                              ; preds = %167
  br label %181

181:                                              ; preds = %180, %174
  %182 = phi i64 [ %179, %174 ], [ 32768, %180 ]
  %183 = trunc i64 %182 to i32
  store i32 %183, ptr %12, align 4, !tbaa !11
  br label %184

184:                                              ; preds = %181, %164
  %185 = load ptr, ptr %5, align 8, !tbaa !4
  %186 = getelementptr inbounds [32768 x i8], ptr %11, i64 0, i64 0
  %187 = load i32, ptr %12, align 4, !tbaa !11
  %188 = call i32 @cache_read(ptr noundef %185, ptr noundef %186, i32 noundef %187)
  %189 = sext i32 %188 to i64
  store i64 %189, ptr %9, align 8, !tbaa !36
  %190 = load i64, ptr %9, align 8, !tbaa !36
  %191 = icmp eq i64 %190, -541478725
  br i1 %191, label %192, label %205

192:                                              ; preds = %184
  %193 = load i32, ptr %7, align 4, !tbaa !11
  %194 = icmp eq i32 %193, 2
  br i1 %194, label %195, label %205

195:                                              ; preds = %192
  br label %196

196:                                              ; preds = %195
  %197 = load ptr, ptr %8, align 8, !tbaa !22
  %198 = getelementptr inbounds nuw %struct.CacheContext, ptr %197, i32 0, i32 8
  %199 = load i32, ptr %198, align 8, !tbaa !43
  %200 = icmp ne i32 %199, 0
  br i1 %200, label %202, label %201

201:                                              ; preds = %196
  call void (ptr, i32, ptr, ...) @av_log(ptr noundef null, i32 noundef 0, ptr noundef @.str.4, ptr noundef @.str.13, ptr noundef @.str.6, i32 noundef 274)
  call void @abort() #9
  unreachable

202:                                              ; preds = %196
  br label %203

203:                                              ; preds = %202
  br label %204

204:                                              ; preds = %203
  store i32 2, ptr %10, align 4
  br label %211

205:                                              ; preds = %192, %184
  %206 = load i64, ptr %9, align 8, !tbaa !36
  %207 = icmp slt i64 %206, 0
  br i1 %207, label %208, label %210

208:                                              ; preds = %205
  %209 = load i64, ptr %9, align 8, !tbaa !36
  store i64 %209, ptr %4, align 8
  store i32 1, ptr %10, align 4
  br label %211

210:                                              ; preds = %205
  store i32 0, ptr %10, align 4
  br label %211

211:                                              ; preds = %210, %208, %204
  call void @llvm.lifetime.end.p0(i64 4, ptr %12) #8
  %212 = load i32, ptr %10, align 4
  switch i32 %212, label %218 [
    i32 0, label %213
  ]

213:                                              ; preds = %211
  br label %153, !llvm.loop !47

214:                                              ; preds = %162
  %215 = load ptr, ptr %8, align 8, !tbaa !22
  %216 = getelementptr inbounds nuw %struct.CacheContext, ptr %215, i32 0, i32 4
  %217 = load i64, ptr %216, align 8, !tbaa !33
  store i64 %217, ptr %4, align 8
  store i32 1, ptr %10, align 4
  br label %218

218:                                              ; preds = %214, %211
  call void @llvm.lifetime.end.p0(i64 32768, ptr %11) #8
  %219 = load i32, ptr %10, align 4
  switch i32 %219, label %245 [
    i32 2, label %85
  ]

220:                                              ; preds = %147
  br label %221

221:                                              ; preds = %220, %130, %127, %124
  %222 = load i64, ptr %9, align 8, !tbaa !36
  %223 = icmp sge i64 %222, 0
  br i1 %223, label %224, label %243

224:                                              ; preds = %221
  %225 = load i64, ptr %9, align 8, !tbaa !36
  %226 = load ptr, ptr %8, align 8, !tbaa !22
  %227 = getelementptr inbounds nuw %struct.CacheContext, ptr %226, i32 0, i32 4
  store i64 %225, ptr %227, align 8, !tbaa !33
  %228 = load ptr, ptr %8, align 8, !tbaa !22
  %229 = getelementptr inbounds nuw %struct.CacheContext, ptr %228, i32 0, i32 7
  %230 = load i64, ptr %229, align 8, !tbaa !44
  %231 = load i64, ptr %9, align 8, !tbaa !36
  %232 = icmp sgt i64 %230, %231
  br i1 %232, label %233, label %237

233:                                              ; preds = %224
  %234 = load ptr, ptr %8, align 8, !tbaa !22
  %235 = getelementptr inbounds nuw %struct.CacheContext, ptr %234, i32 0, i32 7
  %236 = load i64, ptr %235, align 8, !tbaa !44
  br label %239

237:                                              ; preds = %224
  %238 = load i64, ptr %9, align 8, !tbaa !36
  br label %239

239:                                              ; preds = %237, %233
  %240 = phi i64 [ %236, %233 ], [ %238, %237 ]
  %241 = load ptr, ptr %8, align 8, !tbaa !22
  %242 = getelementptr inbounds nuw %struct.CacheContext, ptr %241, i32 0, i32 7
  store i64 %240, ptr %242, align 8, !tbaa !44
  br label %243

243:                                              ; preds = %239, %221
  %244 = load i64, ptr %9, align 8, !tbaa !36
  store i64 %244, ptr %4, align 8
  store i32 1, ptr %10, align 4
  br label %245

245:                                              ; preds = %243, %218, %104, %62
  call void @llvm.lifetime.end.p0(i64 8, ptr %9) #8
  call void @llvm.lifetime.end.p0(i64 8, ptr %8) #8
  %246 = load i64, ptr %4, align 8
  ret i64 %246
}