; Function Attrs: nounwind uwtable
define internal i64 @cache_seek(ptr noundef %0, i64 noundef %1, i32 noundef %2) #0 {
  %4 = alloca [32768 x i8], align 16
  %5 = getelementptr inbounds nuw i8, ptr %0, i64 16
  %6 = load ptr, ptr %5, align 8, !tbaa !9
  switch i32 %2, label %33 [
    i32 65536, label %7
    i32 1, label %.sink.split
    i32 2, label %27
  ]

7:                                                ; preds = %3
  %8 = getelementptr inbounds nuw i8, ptr %6, i64 72
  %9 = load ptr, ptr %8, align 8, !tbaa !32
  %10 = tail call i64 @ffurl_seek2(ptr noundef %9, i64 noundef %1, i32 noundef 65536) #10
  %11 = icmp slt i64 %10, 1
  br i1 %11, label %12, label %.thread

12:                                               ; preds = %7
  %13 = load ptr, ptr %8, align 8, !tbaa !32
  %14 = tail call i64 @ffurl_seek2(ptr noundef %13, i64 noundef -1, i32 noundef 2) #10
  %15 = load ptr, ptr %8, align 8, !tbaa !32
  %16 = getelementptr inbounds nuw i8, ptr %6, i64 48
  %17 = load i64, ptr %16, align 8, !tbaa !31
  %18 = tail call i64 @ffurl_seek2(ptr noundef %15, i64 noundef %17, i32 noundef 0) #10
  %19 = icmp slt i64 %18, 0
  br i1 %19, label %20, label %21

20:                                               ; preds = %12
  tail call void (ptr, i32, ptr, ...) @av_log(ptr noundef nonnull %0, i32 noundef 16, ptr noundef nonnull @.str.12, i64 noundef %14) #10
  br label %21

21:                                               ; preds = %12, %20
  %22 = icmp sgt i64 %14, 0
  br i1 %22, label %.thread, label %24

.thread:                                          ; preds = %7, %21
  %.089109 = phi i64 [ %14, %21 ], [ %10, %7 ]
  %23 = getelementptr inbounds nuw i8, ptr %6, i64 64
  store i32 1, ptr %23, align 8, !tbaa !33
  br label %24

24:                                               ; preds = %.thread, %21
  %.089108 = phi i64 [ %.089109, %.thread ], [ %14, %21 ]
  %25 = getelementptr inbounds nuw i8, ptr %6, i64 56
  %26 = load i64, ptr %25, align 8, !tbaa !34
  %..089 = tail call i64 @llvm.smax.i64(i64 %26, i64 %.089108)
  store i64 %..089, ptr %25, align 8, !tbaa !34
  br label %.thread124

27:                                               ; preds = %3
  %28 = getelementptr inbounds nuw i8, ptr %6, i64 64
  %29 = load i32, ptr %28, align 8, !tbaa !33
  %.not = icmp eq i32 %29, 0
  br i1 %.not, label %33, label %.sink.split

.sink.split:                                      ; preds = %27, %82, %3
  %.sink = phi i64 [ 32, %3 ], [ 56, %82 ], [ 56, %27 ]
  %.392.sink = phi i64 [ %1, %3 ], [ %.190, %82 ], [ %1, %27 ]
  %30 = getelementptr inbounds nuw i8, ptr %6, i64 %.sink
  %31 = load i64, ptr %30, align 8, !tbaa !37
  %32 = add nsw i64 %31, %.392.sink
  br label %33

33:                                               ; preds = %.sink.split, %27, %3
  %.190 = phi i64 [ %1, %27 ], [ %1, %3 ], [ %32, %.sink.split ]
  %.087 = phi i32 [ 2, %27 ], [ %2, %3 ], [ 0, %.sink.split ]
  %34 = icmp eq i32 %.087, 0
  %35 = icmp sgt i64 %.190, -1
  %or.cond = select i1 %34, i1 %35, i1 false
  br i1 %or.cond, label %36, label %45

36:                                               ; preds = %33
  %37 = getelementptr inbounds nuw i8, ptr %6, i64 56
  %38 = load i64, ptr %37, align 8, !tbaa !34
  %39 = icmp slt i64 %.190, %38
  br i1 %39, label %43, label %.thread110

.thread110:                                       ; preds = %36
  %40 = getelementptr inbounds nuw i8, ptr %6, i64 72
  %41 = load ptr, ptr %40, align 8, !tbaa !32
  %42 = call i64 @ffurl_seek2(ptr noundef %41, i64 noundef %.190, i32 noundef 0) #10
  br label %49

43:                                               ; preds = %36
  %44 = getelementptr inbounds nuw i8, ptr %6, i64 32
  store i64 %.190, ptr %44, align 8, !tbaa !24
  br label %.thread124

45:                                               ; preds = %33
  %46 = getelementptr inbounds nuw i8, ptr %6, i64 72
  %47 = load ptr, ptr %46, align 8, !tbaa !32
  %48 = call i64 @ffurl_seek2(ptr noundef %47, i64 noundef %.190, i32 noundef %.087) #10
  br i1 %34, label %49, label %53

49:                                               ; preds = %.thread110, %45
  %50 = phi i64 [ %42, %.thread110 ], [ %48, %45 ]
  %51 = getelementptr inbounds nuw i8, ptr %6, i64 32
  %52 = load i64, ptr %51, align 8, !tbaa !24
  %.not102 = icmp slt i64 %.190, %52
  br i1 %.not102, label %.thread111, label %57

53:                                               ; preds = %45
  %54 = icmp eq i32 %.087, 2
  %55 = icmp slt i64 %.190, 1
  %or.cond4 = select i1 %54, i1 %55, i1 false
  %56 = icmp slt i64 %48, 0
  %or.cond6 = select i1 %or.cond4, i1 %56, i1 false
  br i1 %or.cond6, label %64, label %.thread111

57:                                               ; preds = %49
  %.old5 = icmp slt i64 %50, 0
  br i1 %.old5, label %58, label %.thread123

58:                                               ; preds = %57
  %59 = getelementptr inbounds nuw i8, ptr %6, i64 96
  %60 = load i32, ptr %59, align 8, !tbaa !38
  %61 = sext i32 %60 to i64
  %62 = sub nsw i64 %.190, %52
  %.not103 = icmp sle i64 %62, %61
  %63 = icmp slt i32 %60, 0
  %or.cond149 = or i1 %.not103, %63
  br i1 %or.cond149, label %.split.split.split.us.preheader, label %.thread124

64:                                               ; preds = %53
  %.phi.trans.insert = getelementptr inbounds nuw i8, ptr %6, i64 96
  %.pre = load i32, ptr %.phi.trans.insert, align 8, !tbaa !38
  %65 = icmp slt i32 %.pre, 0
  br i1 %65, label %.split.us.split.preheader, label %.thread124

.split.us.split.preheader:                        ; preds = %64
  call void @llvm.lifetime.start.p0(i64 32768, ptr nonnull %4) #10
  br label %.split.us.split

.split.us.split:                                  ; preds = %.split.us.split.preheader, %68
  %66 = call i32 @cache_read(ptr noundef %0, ptr noundef nonnull %4, i32 noundef 32768)
  %67 = icmp eq i32 %66, -541478725
  br i1 %67, label %.split128.us, label %68

68:                                               ; preds = %.split.us.split
  %69 = icmp sgt i32 %66, -1
  br i1 %69, label %.split.us.split, label %.thread119.loopexit145, !llvm.loop !39

.split.split.split.us.preheader:                  ; preds = %58
  call void @llvm.lifetime.start.p0(i64 32768, ptr nonnull %4) #10
  %70 = getelementptr inbounds nuw i8, ptr %6, i64 32
  br label %.split.split.split.us

.split.split.split.us:                            ; preds = %.split.split.split.us.preheader, %73
  %71 = load i64, ptr %70, align 8, !tbaa !24
  %72 = icmp slt i64 %71, %.190
  br i1 %72, label %73, label %.thread119

73:                                               ; preds = %.split.split.split.us
  %74 = sub nsw i64 %.190, %71
  %spec.select125.us131 = call i64 @llvm.umin.i64(i64 %74, i64 32768)
  %spec.select.us132 = trunc nuw nsw i64 %spec.select125.us131 to i32
  %75 = call i32 @cache_read(ptr noundef %0, ptr noundef nonnull %4, i32 noundef %spec.select.us132)
  %76 = icmp sgt i32 %75, -1
  br i1 %76, label %.split.split.split.us, label %.thread119.loopexit.split.loop.exit147, !llvm.loop !39

.split128.us:                                     ; preds = %.split.us.split
  %77 = getelementptr inbounds nuw i8, ptr %6, i64 64
  %78 = load i32, ptr %77, align 8, !tbaa !33
  %.not104 = icmp eq i32 %78, 0
  br i1 %.not104, label %79, label %82

79:                                               ; preds = %.split128.us
  call void (ptr, i32, ptr, ...) @av_log(ptr noundef null, i32 noundef 0, ptr noundef nonnull @.str.4, ptr noundef nonnull @.str.13, ptr noundef nonnull @.str.6, i32 noundef 274) #10
  call void @abort() #11
  unreachable

.thread119.loopexit.split.loop.exit147:           ; preds = %73
  %80 = sext i32 %75 to i64
  br label %.thread119

.thread119.loopexit145:                           ; preds = %68
  %81 = sext i32 %66 to i64
  br label %.thread119

.thread119:                                       ; preds = %.split.split.split.us, %.thread119.loopexit.split.loop.exit147, %.thread119.loopexit145
  %.us-phi = phi i64 [ %81, %.thread119.loopexit145 ], [ %80, %.thread119.loopexit.split.loop.exit147 ], [ %71, %.split.split.split.us ]
  call void @llvm.lifetime.end.p0(i64 32768, ptr nonnull %4) #10
  br label %.thread124

82:                                               ; preds = %.split128.us
  call void @llvm.lifetime.end.p0(i64 32768, ptr nonnull %4) #10
  br label %.sink.split

.thread111:                                       ; preds = %49, %53
  %83 = phi i64 [ %48, %53 ], [ %50, %49 ]
  %84 = icmp sgt i64 %83, -1
  br i1 %84, label %.thread123, label %.thread124

.thread123:                                       ; preds = %57, %.thread111
  %85 = phi i64 [ %83, %.thread111 ], [ %50, %57 ]
  %86 = getelementptr inbounds nuw i8, ptr %6, i64 32
  store i64 %85, ptr %86, align 8, !tbaa !24
  %87 = getelementptr inbounds nuw i8, ptr %6, i64 56
  %88 = load i64, ptr %87, align 8, !tbaa !34
  %.106 = call i64 @llvm.smax.i64(i64 %88, i64 %85)
  store i64 %.106, ptr %87, align 8, !tbaa !34
  br label %.thread124

.thread124:                                       ; preds = %58, %64, %.thread119, %.thread111, %.thread123, %43, %24
  %.085 = phi i64 [ %.089108, %24 ], [ %.190, %43 ], [ %85, %.thread123 ], [ %83, %.thread111 ], [ %.us-phi, %.thread119 ], [ %48, %64 ], [ %50, %58 ]
  ret i64 %.085
}